target datalayout = "e-m:e-p270:32:32-p271:32:32-p272:64:64-i64:64-i128:128-f80:128-n8:16:32:64-S128"
target triple = "x86_64-pc-linux-gnu"

%struct.PyVarObject = type { %struct._object, i64 }
%struct._object = type { i64, ptr }
%struct._typeobject = type { %struct.PyVarObject, ptr, i64, i64, ptr, i64, ptr, ptr, ptr, ptr, ptr, ptr, ptr, ptr, ptr, ptr, ptr, ptr, ptr, i64, ptr, ptr, ptr, ptr, i64, ptr, ptr, ptr, ptr, ptr, ptr, ptr, ptr, ptr, i64, ptr, ptr, ptr, ptr, ptr, ptr, ptr, ptr, ptr, ptr, ptr, i32, ptr, ptr }
%struct.Py_complex = type { double, double }
%"class.std::complex" = type { { double, double } }

@PyComplex_Type = external global %struct._typeobject, align 8

; Function Attrs: mustprogress nounwind uwtable
define linkonce_odr void @_ZNSt7complexIdEC2Edd(ptr noundef nonnull align 8 dereferenceable(16) %0, double noundef %1, double noundef %2) unnamed_addr #4 comdat align 2 {
  %4 = alloca ptr, align 8
  %5 = alloca double, align 8
  %6 = alloca double, align 8
  store ptr %0, ptr %4, align 8
  store double %1, ptr %5, align 8
  store double %2, ptr %6, align 8
  %7 = load ptr, ptr %4, align 8
  %8 = getelementptr inbounds nuw %"class.std::complex", ptr %7, i32 0, i32 0
  %9 = load double, ptr %5, align 8
  %10 = load double, ptr %6, align 8
  %11 = getelementptr inbounds nuw { double, double }, ptr %8, i32 0, i32 0
  %12 = getelementptr inbounds nuw { double, double }, ptr %8, i32 0, i32 1
  store double %9, ptr %11, align 8
  store double %10, ptr %12, align 8
  ret void
}

; Function Attrs: inlinehint mustprogress nounwind uwtable
define internal noundef i32 @_ZL11_Py_IS_TYPEPK7_objectPK11_typeobject(ptr noundef %0, ptr noundef %1) #9 {
  %3 = alloca ptr, align 8
  %4 = alloca ptr, align 8
  store ptr %0, ptr %3, align 8
  store ptr %1, ptr %4, align 8
  %5 = load ptr, ptr %3, align 8
  %6 = getelementptr inbounds nuw %struct._object, ptr %5, i32 0, i32 1
  %7 = load ptr, ptr %6, align 8
  %8 = load ptr, ptr %4, align 8
  %9 = icmp eq ptr %7, %8
  %10 = zext i1 %9 to i32
  ret i32 %10
}

; Function Attrs: mustprogress nounwind uwtable
define noundef zeroext i1 @_ZN8nanobind6detail10load_cmplxEP7_objecthPSt7complexIdE(ptr noundef %0, i8 noundef zeroext %1, ptr noundef %2) #4 personality ptr @__gxx_personality_v0 {
  %4 = alloca i1, align 1
  %5 = alloca ptr, align 8
  %6 = alloca i8, align 1
  %7 = alloca ptr, align 8
  %8 = alloca i8, align 1
  %9 = alloca i8, align 1
  %10 = alloca %struct.Py_complex, align 8
  %11 = alloca %"class.std::complex", align 8
  %12 = alloca i32, align 4
  store ptr %0, ptr %5, align 8
  store i8 %1, ptr %6, align 1
  store ptr %2, ptr %7, align 8
  call void @llvm.lifetime.start.p0(i64 1, ptr %8) #20
  %13 = load ptr, ptr %5, align 8
  %14 = invoke noundef i32 @_ZL11_Py_IS_TYPEPK7_objectPK11_typeobject(ptr noundef %13, ptr noundef @PyComplex_Type)
          to label %15 unwind label %59

15:                                               ; preds = %3
  %16 = icmp ne i32 %14, 0
  %17 = zext i1 %16 to i8
  store i8 %17, ptr %8, align 1
  call void @llvm.lifetime.start.p0(i64 1, ptr %9) #20
  %18 = load i8, ptr %6, align 1
  %19 = zext i8 %18 to i32
  %20 = and i32 %19, 1
  %21 = icmp ne i32 %20, 0
  %22 = zext i1 %21 to i8
  store i8 %22, ptr %9, align 1
  %23 = load i8, ptr %8, align 1, !range !6, !noundef !7
  %24 = trunc i8 %23 to i1
  br i1 %24, label %28, label %25

25:                                               ; preds = %15
  %26 = load i8, ptr %9, align 1, !range !6, !noundef !7
  %27 = trunc i8 %26 to i1
  br i1 %27, label %28, label %56

28:                                               ; preds = %25, %15
  call void @llvm.lifetime.start.p0(i64 16, ptr %10) #20
  %29 = load ptr, ptr %5, align 8
  %30 = invoke { double, double } @PyComplex_AsCComplex(ptr noundef %29)
          to label %31 unwind label %59

31:                                               ; preds = %28
  %32 = getelementptr inbounds nuw { double, double }, ptr %10, i32 0, i32 0
  %33 = extractvalue { double, double } %30, 0
  store double %33, ptr %32, align 8
  %34 = getelementptr inbounds nuw { double, double }, ptr %10, i32 0, i32 1
  %35 = extractvalue { double, double } %30, 1
  store double %35, ptr %34, align 8
  %36 = getelementptr inbounds nuw %struct.Py_complex, ptr %10, i32 0, i32 0
  %37 = load double, ptr %36, align 8
  %38 = fcmp une double %37, -1.000000e+00
  br i1 %38, label %43, label %39

39:                                               ; preds = %31
  %40 = invoke ptr @PyErr_Occurred()
          to label %41 unwind label %59

41:                                               ; preds = %39
  %42 = icmp ne ptr %40, null
  br i1 %42, label %50, label %43

43:                                               ; preds = %41, %31
  call void @llvm.lifetime.start.p0(i64 16, ptr %11) #20
  %44 = getelementptr inbounds nuw %struct.Py_complex, ptr %10, i32 0, i32 0
  %45 = load double, ptr %44, align 8
  %46 = getelementptr inbounds nuw %struct.Py_complex, ptr %10, i32 0, i32 1
  %47 = load double, ptr %46, align 8
  invoke void @_ZNSt7complexIdEC2Edd(ptr noundef nonnull align 8 dereferenceable(16) %11, double noundef %45, double noundef %47)
          to label %48 unwind label %59

48:                                               ; preds = %43
  %49 = load ptr, ptr %7, align 8
  call void @llvm.memcpy.p0.p0.i64(ptr align 8 %49, ptr align 8 %11, i64 16, i1 false)
  call void @llvm.lifetime.end.p0(i64 16, ptr %11) #20
  store i1 true, ptr %4, align 1
  store i32 1, ptr %12, align 4
  br label %53

50:                                               ; preds = %41
  invoke void @PyErr_Clear()
          to label %51 unwind label %59

51:                                               ; preds = %50
  br label %52

52:                                               ; preds = %51
  store i32 0, ptr %12, align 4
  br label %53

53:                                               ; preds = %52, %48
  call void @llvm.lifetime.end.p0(i64 16, ptr %10) #20
  %54 = load i32, ptr %12, align 4
  switch i32 %54, label %57 [
    i32 0, label %55
  ]

55:                                               ; preds = %53
  br label %56

56:                                               ; preds = %55, %25
  store i1 false, ptr %4, align 1
  store i32 1, ptr %12, align 4
  br label %57

57:                                               ; preds = %56, %53
  call void @llvm.lifetime.end.p0(i64 1, ptr %9) #20
  call void @llvm.lifetime.end.p0(i64 1, ptr %8) #20
  %58 = load i1, ptr %4, align 1
  ret i1 %58

59:                                               ; preds = %50, %43, %39, %28, %3
  %60 = landingpad { ptr, i32 }
          catch ptr null
  %61 = extractvalue { ptr, i32 } %60, 0
  call void @__clang_call_terminate(ptr %61) #22
  unreachable
}