; Function Attrs: mustprogress nounwind uwtable
define noundef zeroext i1 @_ZN8nanobind6detail10load_cmplxEP7_objecthPSt7complexIdE(ptr noundef %0, i8 noundef zeroext %1, ptr noundef writeonly captures(none) %2) local_unnamed_addr #9 personality ptr @__gxx_personality_v0 {
  %4 = getelementptr i8, ptr %0, i64 8
  %.val = load ptr, ptr %4, align 8
  %5 = icmp ne ptr %.val, @PyComplex_Type
  %6 = and i8 %1, 1
  %.not9 = icmp eq i8 %6, 0
  %or.cond = and i1 %.not9, %5
  br i1 %or.cond, label %17, label %7

7:                                                ; preds = %3
  %8 = invoke { double, double } @PyComplex_AsCComplex(ptr noundef nonnull %0)
          to label %9 unwind label %18

9:                                                ; preds = %7
  %10 = extractvalue { double, double } %8, 0
  %11 = extractvalue { double, double } %8, 1
  %12 = fcmp une double %10, -1.000000e+00
  br i1 %12, label %.critedge, label %13

13:                                               ; preds = %9
  %14 = invoke ptr @PyErr_Occurred()
          to label %15 unwind label %18

15:                                               ; preds = %13
  %.not10 = icmp eq ptr %14, null
  br i1 %.not10, label %.critedge, label %16

.critedge:                                        ; preds = %15, %9
  store double %10, ptr %2, align 8
  %.sroa.4.0..sroa_idx = getelementptr inbounds nuw i8, ptr %2, i64 8
  store double %11, ptr %.sroa.4.0..sroa_idx, align 8
  br label %17

16:                                               ; preds = %15
  invoke void @PyErr_Clear()
          to label %17 unwind label %18

17:                                               ; preds = %3, %16, %.critedge
  %.1 = phi i1 [ true, %.critedge ], [ false, %16 ], [ false, %3 ]
  ret i1 %.1

18:                                               ; preds = %16, %13, %7
  %19 = landingpad { ptr, i32 }
          catch ptr null
  %20 = extractvalue { ptr, i32 } %19, 0
  tail call void @__clang_call_terminate(ptr %20) #29
  unreachable
}